; Function Attrs: mustprogress uwtable
define void @_ZN5osgeo4proj5datum15ParametricDatum6createERKNS0_4util11PropertyMapERKNS3_8optionalINSt7__cxx1112basic_stringIcSt11char_traitsIcESaIcEEEEE(ptr dead_on_unwind noalias writable sret(%"class.dropbox::oxygen::nn.320") align 8 %0, ptr noundef nonnull align 8 dereferenceable(8) %1, ptr noundef nonnull align 8 dereferenceable(40) %2) local_unnamed_addr #0 align 2 personality ptr @__gxx_personality_v0 {
  tail call void @_ZN5osgeo4proj5datum15ParametricDatum14nn_make_sharedIS2_JEEEN7dropbox6oxygen2nnISt10shared_ptrIT_EEEDpOT0_(ptr dead_on_unwind writable sret(%"class.dropbox::oxygen::nn.320") align 8 %0)
  %4 = load ptr, ptr %0, align 8
  %5 = getelementptr inbounds i8, ptr %4, i64 56
  %6 = load ptr, ptr %5, align 8
  %7 = load i8, ptr %2, align 8
  %8 = and i8 %7, 1
  store i8 %8, ptr %6, align 8
  %9 = getelementptr inbounds i8, ptr %6, i64 8
  %10 = getelementptr inbounds i8, ptr %2, i64 8
  %11 = invoke noundef nonnull align 8 dereferenceable(32) ptr @_ZNSt7__cxx1112basic_stringIcSt11char_traitsIcESaIcEEaSERKS4_(ptr noundef nonnull align 8 dereferenceable(32) %9, ptr noundef nonnull align 8 dereferenceable(32) %10)
          to label %_ZN5osgeo4proj5datum5Datum9setAnchorERKNS0_4util8optionalINSt7__cxx1112basic_stringIcSt11char_traitsIcESaIcEEEEE.exit unwind label %13

_ZN5osgeo4proj5datum5Datum9setAnchorERKNS0_4util8optionalINSt7__cxx1112basic_stringIcSt11char_traitsIcESaIcEEEEE.exit: ; preds = %3
  %12 = load ptr, ptr %0, align 8
  invoke void @_ZN5osgeo4proj5datum5Datum13setPropertiesERKNS0_4util11PropertyMapE(ptr noundef nonnull align 8 dereferenceable(64) %12, ptr noundef nonnull align 8 dereferenceable(8) %1)
          to label %15 unwind label %13

13:                                               ; preds = %3, %_ZN5osgeo4proj5datum5Datum9setAnchorERKNS0_4util8optionalINSt7__cxx1112basic_stringIcSt11char_traitsIcESaIcEEEEE.exit
  %14 = landingpad { ptr, i32 }
          cleanup
  tail call void @_ZN7dropbox6oxygen2nnISt10shared_ptrIN5osgeo4proj5datum15ParametricDatumEEED2Ev(ptr noundef nonnull align 8 dereferenceable(16) %0) #26
  resume { ptr, i32 } %14

15:                                               ; preds = %_ZN5osgeo4proj5datum5Datum9setAnchorERKNS0_4util8optionalINSt7__cxx1112basic_stringIcSt11char_traitsIcESaIcEEEEE.exit
  ret void
}